; Function Attrs: mustprogress uwtable
define hidden void @_ZNK4cvc58internal6theory11quantifiers16ExampleEvalCache8evaluateENS0_12NodeTemplateILb1EEEj(ptr noalias sret(%"class.cvc5::internal::NodeTemplate") align 8 %agg.result, ptr nocapture noundef nonnull readonly align 8 dereferenceable(144) %this, ptr nocapture noundef readonly %bn, i32 noundef %i) local_unnamed_addr #3 align 2 personality ptr @__gxx_personality_v0 {
entry:
  %agg.tmp = alloca %"class.cvc5::internal::TypeNode", align 8
  %agg.tmp2 = alloca %"class.cvc5::internal::NodeTemplate", align 8
  %0 = load ptr, ptr %this, align 8
  %d_stn = getelementptr inbounds i8, ptr %this, i64 32
  %1 = load ptr, ptr %d_stn, align 8
  store ptr %1, ptr %agg.tmp, align 8
  %bf.load.i.i = load i64, ptr %1, align 8
  %bf.lshr.i.i = lshr i64 %bf.load.i.i, 40
  %2 = trunc i64 %bf.lshr.i.i to i32
  %bf.cast.i.i = and i32 %2, 1048575
  %cmp.i.i = icmp ult i32 %bf.cast.i.i, 1048574
  br i1 %cmp.i.i, label %if.then.i.i, label %if.else.i.i

if.then.i.i:                                      ; preds = %entry
  %bf.value.i.i = add i64 %bf.load.i.i, 1099511627776
  %bf.shl.i.i = and i64 %bf.value.i.i, 1152920405095219200
  %bf.clear7.i.i = and i64 %bf.load.i.i, -1152920405095219201
  %bf.set.i.i = or disjoint i64 %bf.shl.i.i, %bf.clear7.i.i
  store i64 %bf.set.i.i, ptr %1, align 8
  br label %_ZN4cvc58internal8TypeNodeC2ERKS1_.exit

if.else.i.i:                                      ; preds = %entry
  %cmp12.i.i = icmp eq i32 %bf.cast.i.i, 1048574
  br i1 %cmp12.i.i, label %if.then13.i.i, label %_ZN4cvc58internal8TypeNodeC2ERKS1_.exit

if.then13.i.i:                                    ; preds = %if.else.i.i
  %bf.set23.i.i = or i64 %bf.load.i.i, 1152920405095219200
  store i64 %bf.set23.i.i, ptr %1, align 8
  tail call void @_ZN4cvc58internal4expr9NodeValue20markRefCountMaxedOutEv(ptr noundef nonnull align 8 dereferenceable(16) %1)
  br label %_ZN4cvc58internal8TypeNodeC2ERKS1_.exit

_ZN4cvc58internal8TypeNodeC2ERKS1_.exit:          ; preds = %if.then.i.i, %if.else.i.i, %if.then13.i.i
  %3 = load ptr, ptr %bn, align 8
  store ptr %3, ptr %agg.tmp2, align 8
  %bf.load.i.i2 = load i64, ptr %3, align 8
  %bf.lshr.i.i3 = lshr i64 %bf.load.i.i2, 40
  %4 = trunc i64 %bf.lshr.i.i3 to i32
  %bf.cast.i.i4 = and i32 %4, 1048575
  %cmp.i.i5 = icmp ult i32 %bf.cast.i.i4, 1048574
  br i1 %cmp.i.i5, label %if.then.i.i10, label %if.else.i.i6

if.then.i.i10:                                    ; preds = %_ZN4cvc58internal8TypeNodeC2ERKS1_.exit
  %bf.value.i.i11 = add i64 %bf.load.i.i2, 1099511627776
  %bf.shl.i.i12 = and i64 %bf.value.i.i11, 1152920405095219200
  %bf.clear7.i.i13 = and i64 %bf.load.i.i2, -1152920405095219201
  %bf.set.i.i14 = or disjoint i64 %bf.shl.i.i12, %bf.clear7.i.i13
  store i64 %bf.set.i.i14, ptr %3, align 8
  br label %invoke.cont

if.else.i.i6:                                     ; preds = %_ZN4cvc58internal8TypeNodeC2ERKS1_.exit
  %cmp12.i.i7 = icmp eq i32 %bf.cast.i.i4, 1048574
  br i1 %cmp12.i.i7, label %if.then13.i.i8, label %invoke.cont

if.then13.i.i8:                                   ; preds = %if.else.i.i6
  %bf.set23.i.i9 = or i64 %bf.load.i.i2, 1152920405095219200
  store i64 %bf.set23.i.i9, ptr %3, align 8
  invoke void @_ZN4cvc58internal4expr9NodeValue20markRefCountMaxedOutEv(ptr noundef nonnull align 8 dereferenceable(16) %3)
          to label %invoke.cont unwind label %lpad

invoke.cont:                                      ; preds = %if.else.i.i6, %if.then.i.i10, %if.then13.i.i8
  %d_examples = getelementptr inbounds i8, ptr %this, i64 8
  %conv = zext i32 %i to i64
  %5 = load ptr, ptr %d_examples, align 8
  %add.ptr.i = getelementptr inbounds %"class.std::vector.89", ptr %5, i64 %conv
  invoke void @_ZN4cvc58internal6theory11quantifiers11TermDbSygus15evaluateBuiltinENS0_8TypeNodeENS0_12NodeTemplateILb1EEERKSt6vectorIS6_SaIS6_EEb(ptr sret(%"class.cvc5::internal::NodeTemplate") align 8 %agg.result, ptr noundef nonnull align 8 dereferenceable(1040) %0, ptr noundef nonnull %agg.tmp, ptr noundef nonnull %agg.tmp2, ptr noundef nonnull align 8 dereferenceable(24) %add.ptr.i, i1 noundef zeroext true)
          to label %invoke.cont4 unwind label %lpad3

invoke.cont4:                                     ; preds = %invoke.cont
  %6 = load ptr, ptr %agg.tmp2, align 8
  %bf.load.i.i15 = load i64, ptr %6, align 8
  %7 = and i64 %bf.load.i.i15, 1152920405095219200
  %cmp.not.i.i = icmp eq i64 %7, 1152920405095219200
  br i1 %cmp.not.i.i, label %_ZN4cvc58internal12NodeTemplateILb1EED2Ev.exit, label %if.then.i.i16

if.then.i.i16:                                    ; preds = %invoke.cont4
  %bf.value.i.i17 = add i64 %bf.load.i.i15, 1152920405095219200
  %bf.shl.i.i18 = and i64 %bf.value.i.i17, 1152920405095219200
  %bf.clear7.i.i19 = and i64 %bf.load.i.i15, -1152920405095219201
  %bf.set.i.i20 = or disjoint i64 %bf.shl.i.i18, %bf.clear7.i.i19
  store i64 %bf.set.i.i20, ptr %6, align 8
  %cmp12.i.i21 = icmp eq i64 %bf.shl.i.i18, 0
  br i1 %cmp12.i.i21, label %if.then13.i.i22, label %_ZN4cvc58internal12NodeTemplateILb1EED2Ev.exit

if.then13.i.i22:                                  ; preds = %if.then.i.i16
  invoke void @_ZN4cvc58internal4expr9NodeValue15markForDeletionEv(ptr noundef nonnull align 8 dereferenceable(16) %6)
          to label %_ZN4cvc58internal12NodeTemplateILb1EED2Ev.exit unwind label %terminate.lpad.i

terminate.lpad.i:                                 ; preds = %if.then13.i.i22
  %8 = landingpad { ptr, i32 }
          catch ptr null
  %9 = extractvalue { ptr, i32 } %8, 0
  call void @__clang_call_terminate(ptr %9) #15
  unreachable

_ZN4cvc58internal12NodeTemplateILb1EED2Ev.exit:   ; preds = %invoke.cont4, %if.then.i.i16, %if.then13.i.i22
  %10 = load ptr, ptr %agg.tmp, align 8
  %bf.load.i.i23 = load i64, ptr %10, align 8
  %11 = and i64 %bf.load.i.i23, 1152920405095219200
  %cmp.not.i.i24 = icmp eq i64 %11, 1152920405095219200
  br i1 %cmp.not.i.i24, label %_ZN4cvc58internal8TypeNodeD2Ev.exit, label %if.then.i.i25

if.then.i.i25:                                    ; preds = %_ZN4cvc58internal12NodeTemplateILb1EED2Ev.exit
  %bf.value.i.i26 = add i64 %bf.load.i.i23, 1152920405095219200
  %bf.shl.i.i27 = and i64 %bf.value.i.i26, 1152920405095219200
  %bf.clear7.i.i28 = and i64 %bf.load.i.i23, -1152920405095219201
  %bf.set.i.i29 = or disjoint i64 %bf.shl.i.i27, %bf.clear7.i.i28
  store i64 %bf.set.i.i29, ptr %10, align 8
  %cmp12.i.i30 = icmp eq i64 %bf.shl.i.i27, 0
  br i1 %cmp12.i.i30, label %if.then13.i.i31, label %_ZN4cvc58internal8TypeNodeD2Ev.exit

if.then13.i.i31:                                  ; preds = %if.then.i.i25
  invoke void @_ZN4cvc58internal4expr9NodeValue15markForDeletionEv(ptr noundef nonnull align 8 dereferenceable(16) %10)
          to label %_ZN4cvc58internal8TypeNodeD2Ev.exit unwind label %terminate.lpad.i32

terminate.lpad.i32:                               ; preds = %if.then13.i.i31
  %12 = landingpad { ptr, i32 }
          catch ptr null
  %13 = extractvalue { ptr, i32 } %12, 0
  call void @__clang_call_terminate(ptr %13) #15
  unreachable

_ZN4cvc58internal8TypeNodeD2Ev.exit:              ; preds = %_ZN4cvc58internal12NodeTemplateILb1EED2Ev.exit, %if.then.i.i25, %if.then13.i.i31
  ret void

lpad:                                             ; preds = %if.then13.i.i8
  %14 = landingpad { ptr, i32 }
          cleanup
  br label %ehcleanup

lpad3:                                            ; preds = %invoke.cont
  %15 = landingpad { ptr, i32 }
          cleanup
  call void @_ZN4cvc58internal12NodeTemplateILb1EED2Ev(ptr noundef nonnull align 8 dereferenceable(8) %agg.tmp2) #16
  br label %ehcleanup

ehcleanup:                                        ; preds = %lpad3, %lpad
  %.pn = phi { ptr, i32 } [ %15, %lpad3 ], [ %14, %lpad ]
  call void @_ZN4cvc58internal8TypeNodeD2Ev(ptr noundef nonnull align 8 dereferenceable(8) %agg.tmp) #16
  resume { ptr, i32 } %.pn
}